target datalayout = "e-m:e-p270:32:32-p271:32:32-p272:64:64-i64:64-i128:128-f80:128-n8:16:32:64-S128"
target triple = "x86_64-pc-linux-gnu"

%struct.expert_field = type { i32, i32 }
%struct.ieee80211_tagged_field_data = type { i32, ptr, i8, ptr, ptr }

@ei_ieee80211_tag_length = internal global %struct.expert_field zeroinitializer, align 4
@hf_ieee80211_tag_move = internal global i32 0, align 4
@hf_ieee80211_tag_size = internal global i32 0, align 4
@hf_ieee80211_tag_tbtt_offset = internal global i32 0, align 4
@hf_ieee80211_tag_bi_duration = internal global i32 0, align 4
@.str.10161 = private unnamed_addr constant [33 x i8] c"Tag Length %u wrong, must be = 7\00", align 1

; Function Attrs: null_pointer_is_valid sspstrong uwtable
define internal i32 @ieee80211_tag_bss_parameter_change(ptr noundef %0, ptr noundef %1, ptr noundef %2, ptr noundef %3) #1 {
  %5 = alloca i32, align 4
  %6 = alloca ptr, align 8
  %7 = alloca ptr, align 8
  %8 = alloca ptr, align 8
  %9 = alloca ptr, align 8
  %10 = alloca i32, align 4
  %11 = alloca ptr, align 8
  %12 = alloca i32, align 4
  %13 = alloca i8, align 1
  %14 = alloca i32, align 4
  store ptr %0, ptr %6, align 8
  store ptr %1, ptr %7, align 8
  store ptr %2, ptr %8, align 8
  store ptr %3, ptr %9, align 8
  call void @llvm.lifetime.start.p0(i64 4, ptr %10) #19
  %15 = load ptr, ptr %6, align 8
  %16 = call i32 @tvb_reported_length(ptr noundef %15)
  store i32 %16, ptr %10, align 4
  call void @llvm.lifetime.start.p0(i64 8, ptr %11) #19
  %17 = load ptr, ptr %9, align 8
  store ptr %17, ptr %11, align 8
  call void @llvm.lifetime.start.p0(i64 4, ptr %12) #19
  store i32 0, ptr %12, align 4
  call void @llvm.lifetime.start.p0(i64 1, ptr %13) #19
  %18 = load i32, ptr %10, align 4
  %19 = icmp ne i32 %18, 7
  br i1 %19, label %20, label %29

20:                                               ; preds = %4
  %21 = load ptr, ptr %7, align 8
  %22 = load ptr, ptr %11, align 8
  %23 = getelementptr inbounds nuw %struct.ieee80211_tagged_field_data, ptr %22, i32 0, i32 4
  %24 = load ptr, ptr %23, align 8
  %25 = load i32, ptr %10, align 4
  %26 = call ptr (ptr, ptr, ptr, ptr, ...) @expert_add_info_format(ptr noundef %21, ptr noundef %24, ptr noundef @ei_ieee80211_tag_length, ptr noundef @.str.10161, i32 noundef %25)
  %27 = load ptr, ptr %6, align 8
  %28 = call i32 @tvb_captured_length(ptr noundef %27)
  store i32 %28, ptr %5, align 4
  store i32 1, ptr %14, align 4
  br label %70

29:                                               ; preds = %4
  %30 = load ptr, ptr %6, align 8
  %31 = load i32, ptr %12, align 4
  %32 = call zeroext i8 @tvb_get_uint8(ptr noundef %30, i32 noundef %31)
  %33 = zext i8 %32 to i32
  %34 = and i32 %33, 2
  %35 = ashr i32 %34, 1
  %36 = icmp ne i32 %35, 0
  %37 = zext i1 %36 to i8
  store i8 %37, ptr %13, align 1
  %38 = load ptr, ptr %8, align 8
  %39 = load i32, ptr @hf_ieee80211_tag_move, align 4
  %40 = load ptr, ptr %6, align 8
  %41 = load i32, ptr %12, align 4
  %42 = call ptr @proto_tree_add_item(ptr noundef %38, i32 noundef %39, ptr noundef %40, i32 noundef %41, i32 noundef 1, i32 noundef 0)
  %43 = load ptr, ptr %8, align 8
  %44 = load i32, ptr @hf_ieee80211_tag_size, align 4
  %45 = load ptr, ptr %6, align 8
  %46 = load i32, ptr %12, align 4
  %47 = call ptr @proto_tree_add_item(ptr noundef %43, i32 noundef %44, ptr noundef %45, i32 noundef %46, i32 noundef 1, i32 noundef 0)
  %48 = load i32, ptr %12, align 4
  %49 = add i32 %48, 1
  store i32 %49, ptr %12, align 4
  %50 = load ptr, ptr %8, align 8
  %51 = load i32, ptr @hf_ieee80211_tag_tbtt_offset, align 4
  %52 = load ptr, ptr %6, align 8
  %53 = load i32, ptr %12, align 4
  %54 = call ptr @proto_tree_add_item(ptr noundef %50, i32 noundef %51, ptr noundef %52, i32 noundef %53, i32 noundef 4, i32 noundef -2147483648)
  %55 = load i32, ptr %12, align 4
  %56 = add i32 %55, 4
  store i32 %56, ptr %12, align 4
  %57 = load i8, ptr %13, align 1, !range !6, !noundef !7
  %58 = trunc i8 %57 to i1
  %59 = zext i1 %58 to i32
  %60 = icmp eq i32 %59, 1
  br i1 %60, label %61, label %67

61:                                               ; preds = %29
  %62 = load ptr, ptr %8, align 8
  %63 = load i32, ptr @hf_ieee80211_tag_bi_duration, align 4
  %64 = load ptr, ptr %6, align 8
  %65 = load i32, ptr %12, align 4
  %66 = call ptr @proto_tree_add_item(ptr noundef %62, i32 noundef %63, ptr noundef %64, i32 noundef %65, i32 noundef 2, i32 noundef -2147483648)
  br label %67

67:                                               ; preds = %61, %29
  %68 = load ptr, ptr %6, align 8
  %69 = call i32 @tvb_captured_length(ptr noundef %68)
  store i32 %69, ptr %5, align 4
  store i32 1, ptr %14, align 4
  br label %70

70:                                               ; preds = %67, %20
  call void @llvm.lifetime.end.p0(i64 1, ptr %13) #19
  call void @llvm.lifetime.end.p0(i64 4, ptr %12) #19
  call void @llvm.lifetime.end.p0(i64 8, ptr %11) #19
  call void @llvm.lifetime.end.p0(i64 4, ptr %10) #19
  %71 = load i32, ptr %5, align 4
  ret i32 %71
}