; Function Attrs: null_pointer_is_valid sspstrong uwtable
define internal i32 @ieee80211_tag_bss_parameter_change(ptr noundef %0, ptr noundef %1, ptr noundef %2, ptr noundef readonly captures(none) %3) #2 {
  %5 = tail call i32 @tvb_reported_length(ptr noundef %0)
  %.not = icmp eq i32 %5, 7
  br i1 %.not, label %10, label %6

6:                                                ; preds = %4
  %7 = getelementptr inbounds nuw i8, ptr %3, i64 32
  %8 = load ptr, ptr %7, align 8
  %9 = tail call ptr (ptr, ptr, ptr, ptr, ...) @expert_add_info_format(ptr noundef %1, ptr noundef %8, ptr noundef nonnull @ei_ieee80211_tag_length, ptr noundef nonnull @.str.10161, i32 noundef %5)
  br label %22

10:                                               ; preds = %4
  %11 = tail call zeroext i8 @tvb_get_uint8(ptr noundef %0, i32 noundef 0)
  %12 = and i8 %11, 2
  %.not26 = icmp eq i8 %12, 0
  %13 = load i32, ptr @hf_ieee80211_tag_move, align 4
  %14 = tail call ptr @proto_tree_add_item(ptr noundef %2, i32 noundef %13, ptr noundef %0, i32 noundef 0, i32 noundef 1, i32 noundef 0)
  %15 = load i32, ptr @hf_ieee80211_tag_size, align 4
  %16 = tail call ptr @proto_tree_add_item(ptr noundef %2, i32 noundef %15, ptr noundef %0, i32 noundef 0, i32 noundef 1, i32 noundef 0)
  %17 = load i32, ptr @hf_ieee80211_tag_tbtt_offset, align 4
  %18 = tail call ptr @proto_tree_add_item(ptr noundef %2, i32 noundef %17, ptr noundef %0, i32 noundef 1, i32 noundef 4, i32 noundef -2147483648)
  br i1 %.not26, label %22, label %19

19:                                               ; preds = %10
  %20 = load i32, ptr @hf_ieee80211_tag_bi_duration, align 4
  %21 = tail call ptr @proto_tree_add_item(ptr noundef %2, i32 noundef %20, ptr noundef %0, i32 noundef 5, i32 noundef 2, i32 noundef -2147483648)
  br label %22

22:                                               ; preds = %10, %19, %6
  %23 = tail call i32 @tvb_captured_length(ptr noundef %0)
  ret i32 %23
}